; Function Attrs: null_pointer_is_valid sspstrong uwtable
define internal i32 @dissect_h245_T_h223_al_type_al1NotFramed(ptr noundef %0, i32 noundef %1, ptr noundef %2, ptr noundef %3, i32 noundef %4) #1 {
  %6 = load ptr, ptr @h223_lc_params_temp, align 8
  %.not = icmp eq ptr %6, null
  br i1 %.not, label %8, label %7

7:                                                ; preds = %5
  store i32 2, ptr %6, align 8
  br label %8

8:                                                ; preds = %7, %5
  %9 = tail call i32 @dissect_per_null(ptr noundef %0, i32 noundef %1, ptr noundef %2, ptr noundef %3, i32 noundef %4)
  ret i32 %9
}